(dp1
S'failed'
p2
(lp3
S'6'
asS'source_names'
p4
(lp5
S'.'
asS'ids'
p6
(dp7
I1
(S'/home/a001080/dvlp/airviro/AirviroOfflineEdb/test/test_init.py'
S'AirviroOfflineEdb.test.test_init'
S'TestInit.test_read_init'
tp8
sI2
(S'/home/a001080/dvlp/airviro/AirviroOfflineEdb/test/test_qgis_edb_dockwidget.py'
S'AirviroOfflineEdb.test.test_qgis_edb_dockwidget'
S'AirviroOfflineEdbDockWidgetTest.test_dockwidget_ok'
tp9
sI3
(S'/home/a001080/dvlp/airviro/AirviroOfflineEdb/test/test_qgis_environment.py'
S'AirviroOfflineEdb.test.test_qgis_environment'
p10
S'QGISTest.test_projection'
tp11
sI4
(S'/home/a001080/dvlp/airviro/AirviroOfflineEdb/test/test_qgis_environment.py'
g10
S'QGISTest.test_qgis_environment'
tp12
sI5
(S'/home/a001080/dvlp/airviro/AirviroOfflineEdb/test/test_resources.py'
S'AirviroOfflineEdb.test.test_resources'
S'AirviroOfflineEdbDialogTest.test_icon_png'
tp13
sI6
(S'/home/a001080/dvlp/airviro/AirviroOfflineEdb/test/test_translations.py'
S'AirviroOfflineEdb.test.test_translations'
S'SafeTranslationsTest.test_qgis_translations'
tp14
sI7
(S'/home/a001080/dvlp/airviro/AirviroOfflineEdb/test'
S'AirviroOfflineEdb.test'
Ntp15
sI8
(S'/home/a001080/dvlp/airviro/AirviroOfflineEdb/test/test_qgis_edb_dockwidget.py'
S'AirviroOfflineEdb.test.test_qgis_edb_dockwidget'
S'AirviroOfflineEdbDockWidgetTest.test_init'
tp16
sI9
(S'/home/a001080/dvlp/airviro/AirviroOfflineEdb/test/test_qgis_edb_dockwidget.py'
S'AirviroOfflineEdb.test.test_qgis_edb_dockwidget'
S'AirviroOfflineEdbDockWidgetTest.test_dockwidget_open_db'
tp17
ss.